target datalayout = "e-m:e-p270:32:32-p271:32:32-p272:64:64-i64:64-i128:128-f80:128-n8:16:32:64-S128"
target triple = "x86_64-pc-linux-gnu"

%"class.std::vector" = type { %"struct.std::_Vector_base" }
%"struct.std::_Vector_base" = type { %"struct.std::_Vector_base<int, std::allocator<int>>::_Vector_impl" }
%"struct.std::_Vector_base<int, std::allocator<int>>::_Vector_impl" = type { %"struct.std::_Vector_base<int, std::allocator<int>>::_Vector_impl_data" }
%"struct.std::_Vector_base<int, std::allocator<int>>::_Vector_impl_data" = type { ptr, ptr, ptr }
%"class.std::vector.0" = type { %"struct.std::_Vector_base.1" }
%"struct.std::_Vector_base.1" = type { %"struct.std::_Vector_base<float, std::allocator<float>>::_Vector_impl" }
%"struct.std::_Vector_base<float, std::allocator<float>>::_Vector_impl" = type { %"struct.std::_Vector_base<float, std::allocator<float>>::_Vector_impl_data" }
%"struct.std::_Vector_base<float, std::allocator<float>>::_Vector_impl_data" = type { ptr, ptr, ptr }
%"struct.faiss::HNSW::MinimaxHeap" = type { i32, i32, i32, %"class.std::vector", %"class.std::vector.0" }

; Function Attrs: mustprogress nounwind uwtable
define linkonce_odr dso_local noundef nonnull align 4 dereferenceable(4) ptr @_ZNSt6vectorIfSaIfEEixEm(ptr noundef nonnull align 8 dereferenceable(24) %0, i64 noundef %1) #0 comdat align 2 {
  %3 = alloca ptr, align 8
  %4 = alloca i64, align 8
  store ptr %0, ptr %3, align 8, !tbaa !135
  store i64 %1, ptr %4, align 8, !tbaa !19
  %5 = load ptr, ptr %3, align 8
  %6 = getelementptr inbounds nuw %"struct.std::_Vector_base.1", ptr %5, i32 0, i32 0
  %7 = getelementptr inbounds nuw %"struct.std::_Vector_base<float, std::allocator<float>>::_Vector_impl_data", ptr %6, i32 0, i32 0
  %8 = load ptr, ptr %7, align 8, !tbaa !136
  %9 = load i64, ptr %4, align 8, !tbaa !19
  %10 = getelementptr inbounds nuw float, ptr %8, i64 %9
  ret ptr %10
}

; Function Attrs: mustprogress nounwind uwtable
define linkonce_odr dso_local noundef nonnull align 4 dereferenceable(4) ptr @_ZNSt6vectorIiSaIiEEixEm(ptr noundef nonnull align 8 dereferenceable(24) %0, i64 noundef %1) #0 comdat align 2 {
  %3 = alloca ptr, align 8
  %4 = alloca i64, align 8
  store ptr %0, ptr %3, align 8, !tbaa !132
  store i64 %1, ptr %4, align 8, !tbaa !19
  %5 = load ptr, ptr %3, align 8
  %6 = getelementptr inbounds nuw %"struct.std::_Vector_base", ptr %5, i32 0, i32 0
  %7 = getelementptr inbounds nuw %"struct.std::_Vector_base<int, std::allocator<int>>::_Vector_impl_data", ptr %6, i32 0, i32 0
  %8 = load ptr, ptr %7, align 8, !tbaa !134
  %9 = load i64, ptr %4, align 8, !tbaa !19
  %10 = getelementptr inbounds nuw i32, ptr %8, i64 %9
  ret ptr %10
}

; Function Attrs: mustprogress nounwind uwtable
define dso_local noundef i32 @_Z17reference_pop_minRN5faiss4HNSW11MinimaxHeapEPf(ptr noundef nonnull align 8 dereferenceable(64) %0, ptr noundef %1) #0 {
  %3 = alloca i32, align 4
  %4 = alloca ptr, align 8
  %5 = alloca ptr, align 8
  %6 = alloca i32, align 4
  %7 = alloca i32, align 4
  %8 = alloca i32, align 4
  %9 = alloca float, align 4
  %10 = alloca i32, align 4
  store ptr %0, ptr %4, align 8, !tbaa !121
  store ptr %1, ptr %5, align 8, !tbaa !119
  call void @llvm.lifetime.start.p0(i64 4, ptr %6) #6
  %11 = load ptr, ptr %4, align 8, !tbaa !121
  %12 = getelementptr inbounds nuw %"struct.faiss::HNSW::MinimaxHeap", ptr %11, i32 0, i32 1
  %13 = load i32, ptr %12, align 4, !tbaa !123
  %14 = sub nsw i32 %13, 1
  store i32 %14, ptr %6, align 4, !tbaa !58
  br label %15

15:                                               ; preds = %27, %2
  %16 = load i32, ptr %6, align 4, !tbaa !58
  %17 = icmp sge i32 %16, 0
  br i1 %17, label %18, label %30

18:                                               ; preds = %15
  %19 = load ptr, ptr %4, align 8, !tbaa !121
  %20 = getelementptr inbounds nuw %"struct.faiss::HNSW::MinimaxHeap", ptr %19, i32 0, i32 3
  %21 = load i32, ptr %6, align 4, !tbaa !58
  %22 = sext i32 %21 to i64
  %23 = call noundef nonnull align 4 dereferenceable(4) ptr @_ZNSt6vectorIiSaIiEEixEm(ptr noundef nonnull align 8 dereferenceable(24) %20, i64 noundef %22) #6
  %24 = load i32, ptr %23, align 4, !tbaa !58
  %25 = icmp ne i32 %24, -1
  br i1 %25, label %26, label %27

26:                                               ; preds = %18
  br label %30

27:                                               ; preds = %18
  %28 = load i32, ptr %6, align 4, !tbaa !58
  %29 = add nsw i32 %28, -1
  store i32 %29, ptr %6, align 4, !tbaa !58
  br label %15, !llvm.loop !129

30:                                               ; preds = %26, %15
  %31 = load i32, ptr %6, align 4, !tbaa !58
  %32 = icmp eq i32 %31, -1
  br i1 %32, label %33, label %34

33:                                               ; preds = %30
  store i32 -1, ptr %3, align 4
  store i32 1, ptr %7, align 4
  br label %98

34:                                               ; preds = %30
  call void @llvm.lifetime.start.p0(i64 4, ptr %8) #6
  %35 = load i32, ptr %6, align 4, !tbaa !58
  store i32 %35, ptr %8, align 4, !tbaa !58
  call void @llvm.lifetime.start.p0(i64 4, ptr %9) #6
  %36 = load ptr, ptr %4, align 8, !tbaa !121
  %37 = getelementptr inbounds nuw %"struct.faiss::HNSW::MinimaxHeap", ptr %36, i32 0, i32 4
  %38 = load i32, ptr %6, align 4, !tbaa !58
  %39 = sext i32 %38 to i64
  %40 = call noundef nonnull align 4 dereferenceable(4) ptr @_ZNSt6vectorIfSaIfEEixEm(ptr noundef nonnull align 8 dereferenceable(24) %37, i64 noundef %39) #6
  %41 = load float, ptr %40, align 4, !tbaa !61
  store float %41, ptr %9, align 4, !tbaa !61
  %42 = load i32, ptr %6, align 4, !tbaa !58
  %43 = add nsw i32 %42, -1
  store i32 %43, ptr %6, align 4, !tbaa !58
  br label %44

44:                                               ; preds = %72, %34
  %45 = load i32, ptr %6, align 4, !tbaa !58
  %46 = icmp sge i32 %45, 0
  br i1 %46, label %47, label %75

47:                                               ; preds = %44
  %48 = load ptr, ptr %4, align 8, !tbaa !121
  %49 = getelementptr inbounds nuw %"struct.faiss::HNSW::MinimaxHeap", ptr %48, i32 0, i32 3
  %50 = load i32, ptr %6, align 4, !tbaa !58
  %51 = sext i32 %50 to i64
  %52 = call noundef nonnull align 4 dereferenceable(4) ptr @_ZNSt6vectorIiSaIiEEixEm(ptr noundef nonnull align 8 dereferenceable(24) %49, i64 noundef %51) #6
  %53 = load i32, ptr %52, align 4, !tbaa !58
  %54 = icmp ne i32 %53, -1
  br i1 %54, label %55, label %72

55:                                               ; preds = %47
  %56 = load ptr, ptr %4, align 8, !tbaa !121
  %57 = getelementptr inbounds nuw %"struct.faiss::HNSW::MinimaxHeap", ptr %56, i32 0, i32 4
  %58 = load i32, ptr %6, align 4, !tbaa !58
  %59 = sext i32 %58 to i64
  %60 = call noundef nonnull align 4 dereferenceable(4) ptr @_ZNSt6vectorIfSaIfEEixEm(ptr noundef nonnull align 8 dereferenceable(24) %57, i64 noundef %59) #6
  %61 = load float, ptr %60, align 4, !tbaa !61
  %62 = load float, ptr %9, align 4, !tbaa !61
  %63 = fcmp olt float %61, %62
  br i1 %63, label %64, label %72

64:                                               ; preds = %55
  %65 = load ptr, ptr %4, align 8, !tbaa !121
  %66 = getelementptr inbounds nuw %"struct.faiss::HNSW::MinimaxHeap", ptr %65, i32 0, i32 4
  %67 = load i32, ptr %6, align 4, !tbaa !58
  %68 = sext i32 %67 to i64
  %69 = call noundef nonnull align 4 dereferenceable(4) ptr @_ZNSt6vectorIfSaIfEEixEm(ptr noundef nonnull align 8 dereferenceable(24) %66, i64 noundef %68) #6
  %70 = load float, ptr %69, align 4, !tbaa !61
  store float %70, ptr %9, align 4, !tbaa !61
  %71 = load i32, ptr %6, align 4, !tbaa !58
  store i32 %71, ptr %8, align 4, !tbaa !58
  br label %72

72:                                               ; preds = %64, %55, %47
  %73 = load i32, ptr %6, align 4, !tbaa !58
  %74 = add nsw i32 %73, -1
  store i32 %74, ptr %6, align 4, !tbaa !58
  br label %44, !llvm.loop !130

75:                                               ; preds = %44
  %76 = load ptr, ptr %5, align 8, !tbaa !119
  %77 = icmp ne ptr %76, null
  br i1 %77, label %78, label %81

78:                                               ; preds = %75
  %79 = load float, ptr %9, align 4, !tbaa !61
  %80 = load ptr, ptr %5, align 8, !tbaa !119
  store float %79, ptr %80, align 4, !tbaa !61
  br label %81

81:                                               ; preds = %78, %75
  call void @llvm.lifetime.start.p0(i64 4, ptr %10) #6
  %82 = load ptr, ptr %4, align 8, !tbaa !121
  %83 = getelementptr inbounds nuw %"struct.faiss::HNSW::MinimaxHeap", ptr %82, i32 0, i32 3
  %84 = load i32, ptr %8, align 4, !tbaa !58
  %85 = sext i32 %84 to i64
  %86 = call noundef nonnull align 4 dereferenceable(4) ptr @_ZNSt6vectorIiSaIiEEixEm(ptr noundef nonnull align 8 dereferenceable(24) %83, i64 noundef %85) #6
  %87 = load i32, ptr %86, align 4, !tbaa !58
  store i32 %87, ptr %10, align 4, !tbaa !58
  %88 = load ptr, ptr %4, align 8, !tbaa !121
  %89 = getelementptr inbounds nuw %"struct.faiss::HNSW::MinimaxHeap", ptr %88, i32 0, i32 3
  %90 = load i32, ptr %8, align 4, !tbaa !58
  %91 = sext i32 %90 to i64
  %92 = call noundef nonnull align 4 dereferenceable(4) ptr @_ZNSt6vectorIiSaIiEEixEm(ptr noundef nonnull align 8 dereferenceable(24) %89, i64 noundef %91) #6
  store i32 -1, ptr %92, align 4, !tbaa !58
  %93 = load ptr, ptr %4, align 8, !tbaa !121
  %94 = getelementptr inbounds nuw %"struct.faiss::HNSW::MinimaxHeap", ptr %93, i32 0, i32 2
  %95 = load i32, ptr %94, align 8, !tbaa !131
  %96 = add nsw i32 %95, -1
  store i32 %96, ptr %94, align 8, !tbaa !131
  %97 = load i32, ptr %10, align 4, !tbaa !58
  store i32 %97, ptr %3, align 4
  store i32 1, ptr %7, align 4
  call void @llvm.lifetime.end.p0(i64 4, ptr %10) #6
  call void @llvm.lifetime.end.p0(i64 4, ptr %9) #6
  call void @llvm.lifetime.end.p0(i64 4, ptr %8) #6
  br label %98

98:                                               ; preds = %81, %33
  call void @llvm.lifetime.end.p0(i64 4, ptr %6) #6
  %99 = load i32, ptr %3, align 4
  ret i32 %99
}